target datalayout = "e-m:e-p270:32:32-p271:32:32-p272:64:64-i64:64-i128:128-f80:128-n8:16:32:64-S128"
target triple = "x86_64-pc-linux-gnu"

%struct.Abc_ManTime_t_ = type { %struct.Abc_Time_t_, %struct.Abc_Time_t_, ptr, ptr, %struct.Abc_Time_t_, %struct.Abc_Time_t_, ptr, ptr }
%struct.Abc_Time_t_ = type { float, float }
%struct.Vec_Ptr_t_ = type { i32, i32, ptr }

; Function Attrs: nounwind uwtable
define internal void @Vec_PtrGrow(ptr noundef %0, i32 noundef %1) #0 {
  %3 = alloca ptr, align 8
  %4 = alloca i32, align 4
  store ptr %0, ptr %3, align 8
  store i32 %1, ptr %4, align 4
  %5 = load ptr, ptr %3, align 8
  %6 = getelementptr inbounds %struct.Vec_Ptr_t_, ptr %5, i32 0, i32 0
  %7 = load i32, ptr %6, align 8
  %8 = load i32, ptr %4, align 4
  %9 = icmp sge i32 %7, %8
  br i1 %9, label %10, label %11

10:                                               ; preds = %2
  br label %36

11:                                               ; preds = %2
  %12 = load ptr, ptr %3, align 8
  %13 = getelementptr inbounds %struct.Vec_Ptr_t_, ptr %12, i32 0, i32 2
  %14 = load ptr, ptr %13, align 8
  %15 = icmp ne ptr %14, null
  br i1 %15, label %16, label %24

16:                                               ; preds = %11
  %17 = load ptr, ptr %3, align 8
  %18 = getelementptr inbounds %struct.Vec_Ptr_t_, ptr %17, i32 0, i32 2
  %19 = load ptr, ptr %18, align 8
  %20 = load i32, ptr %4, align 4
  %21 = sext i32 %20 to i64
  %22 = mul i64 8, %21
  %23 = call ptr @realloc(ptr noundef %19, i64 noundef %22) #11
  br label %29

24:                                               ; preds = %11
  %25 = load i32, ptr %4, align 4
  %26 = sext i32 %25 to i64
  %27 = mul i64 8, %26
  %28 = call noalias ptr @malloc(i64 noundef %27) #10
  br label %29

29:                                               ; preds = %24, %16
  %30 = phi ptr [ %23, %16 ], [ %28, %24 ]
  %31 = load ptr, ptr %3, align 8
  %32 = getelementptr inbounds %struct.Vec_Ptr_t_, ptr %31, i32 0, i32 2
  store ptr %30, ptr %32, align 8
  %33 = load i32, ptr %4, align 4
  %34 = load ptr, ptr %3, align 8
  %35 = getelementptr inbounds %struct.Vec_Ptr_t_, ptr %34, i32 0, i32 0
  store i32 %33, ptr %35, align 8
  br label %36

36:                                               ; preds = %29, %10
  ret void
}

; Function Attrs: nounwind uwtable
define internal void @Abc_ManTimeExpand(ptr noundef %0, i32 noundef %1, i32 noundef %2) #0 {
  %4 = alloca ptr, align 8
  %5 = alloca i32, align 4
  %6 = alloca i32, align 4
  %7 = alloca ptr, align 8
  %8 = alloca ptr, align 8
  %9 = alloca ptr, align 8
  %10 = alloca ptr, align 8
  %11 = alloca i32, align 4
  %12 = alloca i32, align 4
  %13 = alloca i32, align 4
  store ptr %0, ptr %4, align 8
  store i32 %1, ptr %5, align 4
  store i32 %2, ptr %6, align 4
  %14 = load ptr, ptr %4, align 8
  %15 = getelementptr inbounds %struct.Abc_ManTime_t_, ptr %14, i32 0, i32 2
  %16 = load ptr, ptr %15, align 8
  %17 = getelementptr inbounds %struct.Vec_Ptr_t_, ptr %16, i32 0, i32 1
  %18 = load i32, ptr %17, align 4
  store i32 %18, ptr %11, align 4
  %19 = load i32, ptr %11, align 4
  %20 = load i32, ptr %5, align 4
  %21 = icmp sge i32 %19, %20
  br i1 %21, label %22, label %23

22:                                               ; preds = %3
  br label %184

23:                                               ; preds = %3
  %24 = load i32, ptr %6, align 4
  %25 = icmp ne i32 %24, 0
  br i1 %25, label %26, label %29

26:                                               ; preds = %23
  %27 = load i32, ptr %5, align 4
  %28 = mul nsw i32 2, %27
  br label %31

29:                                               ; preds = %23
  %30 = load i32, ptr %5, align 4
  br label %31

31:                                               ; preds = %29, %26
  %32 = phi i32 [ %28, %26 ], [ %30, %29 ]
  store i32 %32, ptr %12, align 4
  %33 = load i32, ptr %12, align 4
  %34 = icmp slt i32 %33, 100
  br i1 %34, label %35, label %36

35:                                               ; preds = %31
  store i32 100, ptr %12, align 4
  br label %36

36:                                               ; preds = %35, %31
  %37 = load ptr, ptr %4, align 8
  %38 = getelementptr inbounds %struct.Abc_ManTime_t_, ptr %37, i32 0, i32 2
  %39 = load ptr, ptr %38, align 8
  store ptr %39, ptr %7, align 8
  %40 = load ptr, ptr %7, align 8
  %41 = load i32, ptr %12, align 4
  call void @Vec_PtrGrow(ptr noundef %40, i32 noundef %41)
  %42 = load i32, ptr %12, align 4
  %43 = load ptr, ptr %7, align 8
  %44 = getelementptr inbounds %struct.Vec_Ptr_t_, ptr %43, i32 0, i32 1
  store i32 %42, ptr %44, align 4
  %45 = load i32, ptr %11, align 4
  %46 = icmp eq i32 %45, 0
  br i1 %46, label %47, label %48

47:                                               ; preds = %36
  br label %54

48:                                               ; preds = %36
  %49 = load ptr, ptr %7, align 8
  %50 = getelementptr inbounds %struct.Vec_Ptr_t_, ptr %49, i32 0, i32 2
  %51 = load ptr, ptr %50, align 8
  %52 = getelementptr inbounds ptr, ptr %51, i64 0
  %53 = load ptr, ptr %52, align 8
  br label %54

54:                                               ; preds = %48, %47
  %55 = phi ptr [ null, %47 ], [ %53, %48 ]
  store ptr %55, ptr %9, align 8
  %56 = load ptr, ptr %9, align 8
  %57 = icmp ne ptr %56, null
  br i1 %57, label %58, label %64

58:                                               ; preds = %54
  %59 = load ptr, ptr %9, align 8
  %60 = load i32, ptr %12, align 4
  %61 = sext i32 %60 to i64
  %62 = mul i64 8, %61
  %63 = call ptr @realloc(ptr noundef %59, i64 noundef %62) #11
  br label %69

64:                                               ; preds = %54
  %65 = load i32, ptr %12, align 4
  %66 = sext i32 %65 to i64
  %67 = mul i64 8, %66
  %68 = call noalias ptr @malloc(i64 noundef %67) #10
  br label %69

69:                                               ; preds = %64, %58
  %70 = phi ptr [ %63, %58 ], [ %68, %64 ]
  store ptr %70, ptr %8, align 8
  store i32 0, ptr %13, align 4
  br label %71

71:                                               ; preds = %86, %69
  %72 = load i32, ptr %13, align 4
  %73 = load i32, ptr %12, align 4
  %74 = icmp slt i32 %72, %73
  br i1 %74, label %75, label %89

75:                                               ; preds = %71
  %76 = load ptr, ptr %8, align 8
  %77 = load i32, ptr %13, align 4
  %78 = sext i32 %77 to i64
  %79 = getelementptr inbounds %struct.Abc_Time_t_, ptr %76, i64 %78
  %80 = load ptr, ptr %7, align 8
  %81 = getelementptr inbounds %struct.Vec_Ptr_t_, ptr %80, i32 0, i32 2
  %82 = load ptr, ptr %81, align 8
  %83 = load i32, ptr %13, align 4
  %84 = sext i32 %83 to i64
  %85 = getelementptr inbounds ptr, ptr %82, i64 %84
  store ptr %79, ptr %85, align 8
  br label %86

86:                                               ; preds = %75
  %87 = load i32, ptr %13, align 4
  %88 = add nsw i32 %87, 1
  store i32 %88, ptr %13, align 4
  br label %71, !llvm.loop !9

89:                                               ; preds = %71
  %90 = load i32, ptr %11, align 4
  store i32 %90, ptr %13, align 4
  br label %91

91:                                               ; preds = %107, %89
  %92 = load i32, ptr %13, align 4
  %93 = load i32, ptr %12, align 4
  %94 = icmp slt i32 %92, %93
  br i1 %94, label %95, label %110

95:                                               ; preds = %91
  %96 = load ptr, ptr %7, align 8
  %97 = getelementptr inbounds %struct.Vec_Ptr_t_, ptr %96, i32 0, i32 2
  %98 = load ptr, ptr %97, align 8
  %99 = load i32, ptr %13, align 4
  %100 = sext i32 %99 to i64
  %101 = getelementptr inbounds ptr, ptr %98, i64 %100
  %102 = load ptr, ptr %101, align 8
  store ptr %102, ptr %10, align 8
  %103 = load ptr, ptr %10, align 8
  %104 = getelementptr inbounds %struct.Abc_Time_t_, ptr %103, i32 0, i32 0
  store float -1.000000e+09, ptr %104, align 4
  %105 = load ptr, ptr %10, align 8
  %106 = getelementptr inbounds %struct.Abc_Time_t_, ptr %105, i32 0, i32 1
  store float -1.000000e+09, ptr %106, align 4
  br label %107

107:                                              ; preds = %95
  %108 = load i32, ptr %13, align 4
  %109 = add nsw i32 %108, 1
  store i32 %109, ptr %13, align 4
  br label %91, !llvm.loop !10

110:                                              ; preds = %91
  %111 = load ptr, ptr %4, align 8
  %112 = getelementptr inbounds %struct.Abc_ManTime_t_, ptr %111, i32 0, i32 3
  %113 = load ptr, ptr %112, align 8
  store ptr %113, ptr %7, align 8
  %114 = load ptr, ptr %7, align 8
  %115 = load i32, ptr %12, align 4
  call void @Vec_PtrGrow(ptr noundef %114, i32 noundef %115)
  %116 = load i32, ptr %12, align 4
  %117 = load ptr, ptr %7, align 8
  %118 = getelementptr inbounds %struct.Vec_Ptr_t_, ptr %117, i32 0, i32 1
  store i32 %116, ptr %118, align 4
  %119 = load i32, ptr %11, align 4
  %120 = icmp eq i32 %119, 0
  br i1 %120, label %121, label %122

121:                                              ; preds = %110
  br label %128

122:                                              ; preds = %110
  %123 = load ptr, ptr %7, align 8
  %124 = getelementptr inbounds %struct.Vec_Ptr_t_, ptr %123, i32 0, i32 2
  %125 = load ptr, ptr %124, align 8
  %126 = getelementptr inbounds ptr, ptr %125, i64 0
  %127 = load ptr, ptr %126, align 8
  br label %128

128:                                              ; preds = %122, %121
  %129 = phi ptr [ null, %121 ], [ %127, %122 ]
  store ptr %129, ptr %9, align 8
  %130 = load ptr, ptr %9, align 8
  %131 = icmp ne ptr %130, null
  br i1 %131, label %132, label %138

132:                                              ; preds = %128
  %133 = load ptr, ptr %9, align 8
  %134 = load i32, ptr %12, align 4
  %135 = sext i32 %134 to i64
  %136 = mul i64 8, %135
  %137 = call ptr @realloc(ptr noundef %133, i64 noundef %136) #11
  br label %143

138:                                              ; preds = %128
  %139 = load i32, ptr %12, align 4
  %140 = sext i32 %139 to i64
  %141 = mul i64 8, %140
  %142 = call noalias ptr @malloc(i64 noundef %141) #10
  br label %143

143:                                              ; preds = %138, %132
  %144 = phi ptr [ %137, %132 ], [ %142, %138 ]
  store ptr %144, ptr %8, align 8
  store i32 0, ptr %13, align 4
  br label %145

145:                                              ; preds = %160, %143
  %146 = load i32, ptr %13, align 4
  %147 = load i32, ptr %12, align 4
  %148 = icmp slt i32 %146, %147
  br i1 %148, label %149, label %163

149:                                              ; preds = %145
  %150 = load ptr, ptr %8, align 8
  %151 = load i32, ptr %13, align 4
  %152 = sext i32 %151 to i64
  %153 = getelementptr inbounds %struct.Abc_Time_t_, ptr %150, i64 %152
  %154 = load ptr, ptr %7, align 8
  %155 = getelementptr inbounds %struct.Vec_Ptr_t_, ptr %154, i32 0, i32 2
  %156 = load ptr, ptr %155, align 8
  %157 = load i32, ptr %13, align 4
  %158 = sext i32 %157 to i64
  %159 = getelementptr inbounds ptr, ptr %156, i64 %158
  store ptr %153, ptr %159, align 8
  br label %160

160:                                              ; preds = %149
  %161 = load i32, ptr %13, align 4
  %162 = add nsw i32 %161, 1
  store i32 %162, ptr %13, align 4
  br label %145, !llvm.loop !11

163:                                              ; preds = %145
  %164 = load i32, ptr %11, align 4
  store i32 %164, ptr %13, align 4
  br label %165

165:                                              ; preds = %181, %163
  %166 = load i32, ptr %13, align 4
  %167 = load i32, ptr %12, align 4
  %168 = icmp slt i32 %166, %167
  br i1 %168, label %169, label %184

169:                                              ; preds = %165
  %170 = load ptr, ptr %7, align 8
  %171 = getelementptr inbounds %struct.Vec_Ptr_t_, ptr %170, i32 0, i32 2
  %172 = load ptr, ptr %171, align 8
  %173 = load i32, ptr %13, align 4
  %174 = sext i32 %173 to i64
  %175 = getelementptr inbounds ptr, ptr %172, i64 %174
  %176 = load ptr, ptr %175, align 8
  store ptr %176, ptr %10, align 8
  %177 = load ptr, ptr %10, align 8
  %178 = getelementptr inbounds %struct.Abc_Time_t_, ptr %177, i32 0, i32 0
  store float 1.000000e+09, ptr %178, align 4
  %179 = load ptr, ptr %10, align 8
  %180 = getelementptr inbounds %struct.Abc_Time_t_, ptr %179, i32 0, i32 1
  store float 1.000000e+09, ptr %180, align 4
  br label %181

181:                                              ; preds = %169
  %182 = load i32, ptr %13, align 4
  %183 = add nsw i32 %182, 1
  store i32 %183, ptr %13, align 4
  br label %165, !llvm.loop !12

184:                                              ; preds = %165, %22
  ret void
}